target datalayout = "e-m:e-p270:32:32-p271:32:32-p272:64:64-i64:64-i128:128-f80:128-n8:16:32:64-S128"
target triple = "x86_64-pc-linux-gnu"

%struct._http_info_value_t = type { i32, ptr, i32, ptr, ptr, ptr, ptr, ptr, ptr }

@.str.457 = private unnamed_addr constant [13 x i8] c"Unknown (%d)\00", align 1
@st_str_packets = internal global ptr @.str.505, align 8
@st_str_responses = internal global ptr @.str.506, align 8
@st_node_packets = internal global i32 -1, align 4
@st_node_resp_broken = internal global i32 -1, align 4
@st_str_resp_broken = internal global ptr @.str.507, align 8
@st_node_resp_100 = internal global i32 -1, align 4
@st_str_resp_100 = internal global ptr @.str.508, align 8
@st_node_resp_200 = internal global i32 -1, align 4
@st_str_resp_200 = internal global ptr @.str.509, align 8
@st_node_resp_300 = internal global i32 -1, align 4
@st_str_resp_300 = internal global ptr @.str.510, align 8
@st_node_resp_400 = internal global i32 -1, align 4
@st_str_resp_400 = internal global ptr @.str.511, align 8
@st_node_resp_500 = internal global i32 -1, align 4
@st_str_resp_500 = internal global ptr @.str.512, align 8
@st_node_responses = internal global i32 -1, align 4
@.str.504 = private unnamed_addr constant [6 x i8] c"%u %s\00", align 1
@st_node_requests = internal global i32 -1, align 4
@st_str_other = internal global ptr @.str.513, align 8

; Function Attrs: null_pointer_is_valid sspstrong uwtable
define internal i32 @http_stats_tree_packet(ptr noundef %0, ptr noundef %1, ptr noundef %2, ptr noundef %3, i32 noundef %4) #0 {
  %6 = alloca ptr, align 8
  %7 = alloca ptr, align 8
  %8 = alloca ptr, align 8
  %9 = alloca ptr, align 8
  %10 = alloca i32, align 4
  %11 = alloca ptr, align 8
  %12 = alloca i32, align 4
  %13 = alloca i32, align 4
  %14 = alloca ptr, align 8
  %15 = alloca [64 x i8], align 16
  store ptr %0, ptr %6, align 8
  store ptr %1, ptr %7, align 8
  store ptr %2, ptr %8, align 8
  store ptr %3, ptr %9, align 8
  store i32 %4, ptr %10, align 4
  call void @llvm.lifetime.start.p0(i64 8, ptr %11) #19
  %16 = load ptr, ptr %9, align 8
  store ptr %16, ptr %11, align 8
  call void @llvm.lifetime.start.p0(i64 4, ptr %12) #19
  %17 = load ptr, ptr %11, align 8
  %18 = getelementptr inbounds nuw %struct._http_info_value_t, ptr %17, i32 0, i32 2
  %19 = load i32, ptr %18, align 8
  store i32 %19, ptr %12, align 4
  call void @llvm.lifetime.start.p0(i64 4, ptr %13) #19
  call void @llvm.lifetime.start.p0(i64 8, ptr %14) #19
  call void @llvm.lifetime.start.p0(i64 64, ptr %15) #19
  %20 = load ptr, ptr %6, align 8
  %21 = load ptr, ptr @st_str_packets, align 8
  %22 = call i32 @stats_tree_manip_node_int(i32 noundef 0, ptr noundef %20, ptr noundef %21, i32 noundef 0, i1 noundef zeroext false, i32 noundef 1)
  %23 = load i32, ptr %12, align 4
  %24 = icmp ne i32 %23, 0
  br i1 %24, label %25, label %83

25:                                               ; preds = %5
  %26 = load ptr, ptr %6, align 8
  %27 = load ptr, ptr @st_str_responses, align 8
  %28 = load i32, ptr @st_node_packets, align 4
  %29 = call i32 @stats_tree_manip_node_int(i32 noundef 0, ptr noundef %26, ptr noundef %27, i32 noundef %28, i1 noundef zeroext false, i32 noundef 1)
  %30 = load i32, ptr %12, align 4
  %31 = icmp ult i32 %30, 100
  br i1 %31, label %35, label %32

32:                                               ; preds = %25
  %33 = load i32, ptr %12, align 4
  %34 = icmp uge i32 %33, 600
  br i1 %34, label %35, label %38

35:                                               ; preds = %32, %25
  %36 = load i32, ptr @st_node_resp_broken, align 4
  store i32 %36, ptr %13, align 4
  %37 = load ptr, ptr @st_str_resp_broken, align 8
  store ptr %37, ptr %14, align 8
  br label %69

38:                                               ; preds = %32
  %39 = load i32, ptr %12, align 4
  %40 = icmp ult i32 %39, 200
  br i1 %40, label %41, label %44

41:                                               ; preds = %38
  %42 = load i32, ptr @st_node_resp_100, align 4
  store i32 %42, ptr %13, align 4
  %43 = load ptr, ptr @st_str_resp_100, align 8
  store ptr %43, ptr %14, align 8
  br label %68

44:                                               ; preds = %38
  %45 = load i32, ptr %12, align 4
  %46 = icmp ult i32 %45, 300
  br i1 %46, label %47, label %50

47:                                               ; preds = %44
  %48 = load i32, ptr @st_node_resp_200, align 4
  store i32 %48, ptr %13, align 4
  %49 = load ptr, ptr @st_str_resp_200, align 8
  store ptr %49, ptr %14, align 8
  br label %67

50:                                               ; preds = %44
  %51 = load i32, ptr %12, align 4
  %52 = icmp ult i32 %51, 400
  br i1 %52, label %53, label %56

53:                                               ; preds = %50
  %54 = load i32, ptr @st_node_resp_300, align 4
  store i32 %54, ptr %13, align 4
  %55 = load ptr, ptr @st_str_resp_300, align 8
  store ptr %55, ptr %14, align 8
  br label %66

56:                                               ; preds = %50
  %57 = load i32, ptr %12, align 4
  %58 = icmp ult i32 %57, 500
  br i1 %58, label %59, label %62

59:                                               ; preds = %56
  %60 = load i32, ptr @st_node_resp_400, align 4
  store i32 %60, ptr %13, align 4
  %61 = load ptr, ptr @st_str_resp_400, align 8
  store ptr %61, ptr %14, align 8
  br label %65

62:                                               ; preds = %56
  %63 = load i32, ptr @st_node_resp_500, align 4
  store i32 %63, ptr %13, align 4
  %64 = load ptr, ptr @st_str_resp_500, align 8
  store ptr %64, ptr %14, align 8
  br label %65

65:                                               ; preds = %62, %59
  br label %66

66:                                               ; preds = %65, %53
  br label %67

67:                                               ; preds = %66, %47
  br label %68

68:                                               ; preds = %67, %41
  br label %69

69:                                               ; preds = %68, %35
  %70 = load ptr, ptr %6, align 8
  %71 = load ptr, ptr %14, align 8
  %72 = load i32, ptr @st_node_responses, align 4
  %73 = call i32 @stats_tree_manip_node_int(i32 noundef 0, ptr noundef %70, ptr noundef %71, i32 noundef %72, i1 noundef zeroext false, i32 noundef 1)
  %74 = getelementptr inbounds [64 x i8], ptr %15, i64 0, i64 0
  %75 = load i32, ptr %12, align 4
  %76 = load i32, ptr %12, align 4
  %77 = call ptr @val_to_str(i32 noundef %76, ptr noundef @vals_http_status_code, ptr noundef @.str.457)
  %78 = call i32 (ptr, i64, i32, i64, ptr, ...) @__snprintf_chk(ptr noundef %74, i64 noundef 64, i32 noundef 2, i64 noundef 64, ptr noundef @.str.504, i32 noundef %75, ptr noundef %77)
  %79 = load ptr, ptr %6, align 8
  %80 = getelementptr inbounds [64 x i8], ptr %15, i64 0, i64 0
  %81 = load i32, ptr %13, align 4
  %82 = call i32 @stats_tree_manip_node_int(i32 noundef 0, ptr noundef %79, ptr noundef %80, i32 noundef %81, i1 noundef zeroext false, i32 noundef 1)
  br label %101

83:                                               ; preds = %5
  %84 = load ptr, ptr %11, align 8
  %85 = getelementptr inbounds nuw %struct._http_info_value_t, ptr %84, i32 0, i32 1
  %86 = load ptr, ptr %85, align 8
  %87 = icmp ne ptr %86, null
  br i1 %87, label %88, label %95

88:                                               ; preds = %83
  %89 = load ptr, ptr %6, align 8
  %90 = load i32, ptr @st_node_requests, align 4
  %91 = load ptr, ptr %11, align 8
  %92 = getelementptr inbounds nuw %struct._http_info_value_t, ptr %91, i32 0, i32 1
  %93 = load ptr, ptr %92, align 8
  %94 = call i32 @stats_tree_tick_pivot(ptr noundef %89, i32 noundef %90, ptr noundef %93)
  br label %100

95:                                               ; preds = %83
  %96 = load ptr, ptr %6, align 8
  %97 = load ptr, ptr @st_str_other, align 8
  %98 = load i32, ptr @st_node_packets, align 4
  %99 = call i32 @stats_tree_manip_node_int(i32 noundef 0, ptr noundef %96, ptr noundef %97, i32 noundef %98, i1 noundef zeroext false, i32 noundef 1)
  br label %100

100:                                              ; preds = %95, %88
  br label %101

101:                                              ; preds = %100, %69
  call void @llvm.lifetime.end.p0(i64 64, ptr %15) #19
  call void @llvm.lifetime.end.p0(i64 8, ptr %14) #19
  call void @llvm.lifetime.end.p0(i64 4, ptr %13) #19
  call void @llvm.lifetime.end.p0(i64 4, ptr %12) #19
  call void @llvm.lifetime.end.p0(i64 8, ptr %11) #19
  ret i32 1
}