; Function Attrs: null_pointer_is_valid sspstrong uwtable
define internal noundef i32 @http_stats_tree_packet(ptr noundef %0, ptr readnone captures(none) %1, ptr readnone captures(none) %2, ptr noundef readonly captures(none) %3, i32 %4) #0 {
  %6 = alloca [64 x i8], align 16
  %7 = getelementptr inbounds nuw i8, ptr %3, i64 16
  %8 = load i32, ptr %7, align 8
  call void @llvm.lifetime.start.p0(i64 64, ptr nonnull %6) #21
  %9 = tail call i32 @stats_tree_manip_node_int(i32 noundef 0, ptr noundef %0, ptr noundef nonnull @.str.505, i32 noundef 0, i1 noundef zeroext false, i32 noundef 1)
  %.not = icmp eq i32 %8, 0
  br i1 %.not, label %28, label %10

10:                                               ; preds = %5
  %11 = load i32, ptr @st_node_packets, align 4
  %12 = tail call i32 @stats_tree_manip_node_int(i32 noundef 0, ptr noundef %0, ptr noundef nonnull @.str.506, i32 noundef %11, i1 noundef zeroext false, i32 noundef 1)
  %13 = add i32 %8, -600
  %or.cond = icmp ult i32 %13, -500
  br i1 %or.cond, label %22, label %14

14:                                               ; preds = %10
  %15 = icmp samesign ult i32 %8, 200
  br i1 %15, label %22, label %16

16:                                               ; preds = %14
  %17 = icmp samesign ult i32 %8, 300
  br i1 %17, label %22, label %18

18:                                               ; preds = %16
  %19 = icmp samesign ult i32 %8, 400
  br i1 %19, label %22, label %20

20:                                               ; preds = %18
  %21 = icmp samesign ult i32 %8, 500
  %st_node_resp_400.st_node_resp_500 = select i1 %21, ptr @st_node_resp_400, ptr @st_node_resp_500
  %.str.511..str.512 = select i1 %21, ptr @.str.511, ptr @.str.512
  br label %22

22:                                               ; preds = %20, %18, %16, %14, %10
  %.021.in = phi ptr [ @st_node_resp_broken, %10 ], [ @st_node_resp_100, %14 ], [ @st_node_resp_200, %16 ], [ @st_node_resp_300, %18 ], [ %st_node_resp_400.st_node_resp_500, %20 ]
  %.0 = phi ptr [ @.str.507, %10 ], [ @.str.508, %14 ], [ @.str.509, %16 ], [ @.str.510, %18 ], [ %.str.511..str.512, %20 ]
  %.021 = load i32, ptr %.021.in, align 4
  %23 = load i32, ptr @st_node_responses, align 4
  %24 = tail call i32 @stats_tree_manip_node_int(i32 noundef 0, ptr noundef %0, ptr noundef nonnull %.0, i32 noundef %23, i1 noundef zeroext false, i32 noundef 1)
  %25 = tail call ptr @val_to_str(i32 noundef %8, ptr noundef nonnull @vals_http_status_code, ptr noundef nonnull @.str.457)
  %26 = call i32 (ptr, i64, i32, i64, ptr, ...) @__snprintf_chk(ptr noundef nonnull %6, i64 noundef 64, i32 noundef 2, i64 noundef 64, ptr noundef nonnull @.str.504, i32 noundef %8, ptr noundef %25)
  %27 = call i32 @stats_tree_manip_node_int(i32 noundef 0, ptr noundef %0, ptr noundef nonnull %6, i32 noundef %.021, i1 noundef zeroext false, i32 noundef 1)
  br label %37

28:                                               ; preds = %5
  %29 = getelementptr inbounds nuw i8, ptr %3, i64 8
  %30 = load ptr, ptr %29, align 8
  %.not24 = icmp eq ptr %30, null
  br i1 %.not24, label %34, label %31

31:                                               ; preds = %28
  %32 = load i32, ptr @st_node_requests, align 4
  %33 = tail call i32 @stats_tree_tick_pivot(ptr noundef %0, i32 noundef %32, ptr noundef nonnull %30)
  br label %37

34:                                               ; preds = %28
  %35 = load i32, ptr @st_node_packets, align 4
  %36 = tail call i32 @stats_tree_manip_node_int(i32 noundef 0, ptr noundef %0, ptr noundef nonnull @.str.513, i32 noundef %35, i1 noundef zeroext false, i32 noundef 1)
  br label %37

37:                                               ; preds = %31, %34, %22
  call void @llvm.lifetime.end.p0(i64 64, ptr nonnull %6) #21
  ret i32 1
}